target datalayout = "e-m:e-p270:32:32-p271:32:32-p272:64:64-i64:64-i128:128-f80:128-n8:16:32:64-S128"
target triple = "x86_64-unknown-linux-gnu"

%"class.icu_75::CollationElementIterator" = type { %"class.icu_75::UObject", ptr, ptr, i32, i8, ptr, %"class.icu_75::UnicodeString" }
%"class.icu_75::UObject" = type { ptr }
%"class.icu_75::UnicodeString" = type { %"class.icu_75::Replaceable", %"union.icu_75::UnicodeString::StackBufferOrFields" }
%"class.icu_75::Replaceable" = type { %"class.icu_75::UObject" }
%"union.icu_75::UnicodeString::StackBufferOrFields" = type { %struct.anon.0, [32 x i8] }
%struct.anon.0 = type { i16, i32, i32, ptr }
%"class.icu_75::RuleBasedCollator" = type <{ %"class.icu_75::Collator", ptr, ptr, ptr, ptr, %"class.icu_75::Locale", i32, i8, [3 x i8] }>
%"class.icu_75::Collator" = type { %"class.icu_75::UObject" }
%"class.icu_75::Locale" = type <{ %"class.icu_75::UObject", [12 x i8], [6 x i8], [4 x i8], [2 x i8], i32, [4 x i8], ptr, [157 x i8], [3 x i8], ptr, i8, [7 x i8] }>
%"struct.icu_75::CollationSettings" = type <{ %"class.icu_75::SharedObject", i32, i32, ptr, i32, [4 x i8], ptr, i32, [4 x i8], ptr, i32, i32, i32, [384 x i16], [4 x i8] }>
%"class.icu_75::SharedObject" = type { %"class.icu_75::UObject", i32, %"struct.std::atomic", ptr }
%"struct.std::atomic" = type { %"struct.std::__atomic_base" }
%"struct.std::__atomic_base" = type { i32 }

; Function Attrs: mustprogress nounwind uwtable
define linkonce_odr noundef i32 @_ZN6icu_7517CollationSettings11getStrengthEi(i32 noundef %options) #0 comdat align 2 {
entry:
  %options.addr = alloca i32, align 4
  store i32 %options, ptr %options.addr, align 4
  %0 = load i32, ptr %options.addr, align 4
  %shr = ashr i32 %0, 12
  ret i32 %shr
}

; Function Attrs: mustprogress uwtable
define linkonce_odr noundef i32 @_ZNK6icu_7517CollationSettings11getStrengthEv(ptr noundef nonnull align 8 dereferenceable(852) %this) #1 comdat align 2 {
entry:
  %this.addr = alloca ptr, align 8
  store ptr %this, ptr %this.addr, align 8
  %this1 = load ptr, ptr %this.addr, align 8
  %options = getelementptr inbounds %"struct.icu_75::CollationSettings", ptr %this1, i32 0, i32 1
  %0 = load i32, ptr %options, align 8
  %call = call noundef i32 @_ZN6icu_7517CollationSettings11getStrengthEi(i32 noundef %0)
  ret i32 %call
}

; Function Attrs: mustprogress uwtable
define noundef i32 @_ZNK6icu_7524CollationElementIterator13strengthOrderEi(ptr noundef nonnull align 8 dereferenceable(104) %this, i32 noundef %order) #1 align 2 {
entry:
  %this.addr = alloca ptr, align 8
  %order.addr = alloca i32, align 4
  %s = alloca i32, align 4
  store ptr %this, ptr %this.addr, align 8
  store i32 %order, ptr %order.addr, align 4
  %this1 = load ptr, ptr %this.addr, align 8
  %rbc_ = getelementptr inbounds %"class.icu_75::CollationElementIterator", ptr %this1, i32 0, i32 2
  %0 = load ptr, ptr %rbc_, align 8
  %settings = getelementptr inbounds %"class.icu_75::RuleBasedCollator", ptr %0, i32 0, i32 2
  %1 = load ptr, ptr %settings, align 8
  %call = call noundef i32 @_ZNK6icu_7517CollationSettings11getStrengthEv(ptr noundef nonnull align 8 dereferenceable(852) %1)
  store i32 %call, ptr %s, align 4
  %2 = load i32, ptr %s, align 4
  %cmp = icmp eq i32 %2, 0
  br i1 %cmp, label %if.then, label %if.else

if.then:                                          ; preds = %entry
  %3 = load i32, ptr %order.addr, align 4
  %and = and i32 %3, -65536
  store i32 %and, ptr %order.addr, align 4
  br label %if.end5

if.else:                                          ; preds = %entry
  %4 = load i32, ptr %s, align 4
  %cmp2 = icmp eq i32 %4, 1
  br i1 %cmp2, label %if.then3, label %if.end

if.then3:                                         ; preds = %if.else
  %5 = load i32, ptr %order.addr, align 4
  %and4 = and i32 %5, -256
  store i32 %and4, ptr %order.addr, align 4
  br label %if.end

if.end:                                           ; preds = %if.then3, %if.else
  br label %if.end5

if.end5:                                          ; preds = %if.end, %if.then
  %6 = load i32, ptr %order.addr, align 4
  ret i32 %6
}