; Function Attrs: mustprogress nofree norecurse nosync nounwind willreturn memory(read, inaccessiblemem: none) uwtable
define noundef i32 @_ZNK6icu_7524CollationElementIterator13strengthOrderEi(ptr nocapture noundef nonnull readonly align 8 dereferenceable(104) %this, i32 noundef %order) local_unnamed_addr #5 align 2 {
entry:
  %rbc_ = getelementptr inbounds i8, ptr %this, i64 16
  %0 = load ptr, ptr %rbc_, align 8
  %settings = getelementptr inbounds i8, ptr %0, i64 16
  %1 = load ptr, ptr %settings, align 8
  %options.i = getelementptr inbounds i8, ptr %1, i64 24
  %2 = load i32, ptr %options.i, align 8
  %shr.i.i = ashr i32 %2, 12
  switch i32 %shr.i.i, label %if.end5 [
    i32 0, label %if.then
    i32 1, label %if.then3
  ]

if.then:                                          ; preds = %entry
  %and = and i32 %order, -65536
  br label %if.end5

if.then3:                                         ; preds = %entry
  %and4 = and i32 %order, -256
  br label %if.end5

if.end5:                                          ; preds = %entry, %if.then3, %if.then
  %order.addr.0 = phi i32 [ %and, %if.then ], [ %and4, %if.then3 ], [ %order, %entry ]
  ret i32 %order.addr.0
}